; Function Attrs: nounwind uwtable
define noalias ptr @l_Lean_IR_EmitC_emitArgs(ptr noundef readonly captures(none) %0, ptr noundef readnone captures(none) %1, ptr noundef %2) local_unnamed_addr #0 {
lean_dec.exit:
  %3 = getelementptr i8, ptr %0, i64 8
  %.val = load i64, ptr %3, align 8, !tbaa !15
  %4 = shl i64 %.val, 1
  %5 = or disjoint i64 %4, 1
  %6 = inttoptr i64 %5 to ptr
  %7 = tail call ptr @l_Nat_forM_loop___at_Lean_IR_EmitC_emitArgs___spec__1(ptr noundef %0, ptr noundef nonnull %6, ptr noundef nonnull %6, ptr nonnull poison, ptr poison, ptr noundef %2)
  ret ptr %7
}